target datalayout = "e-m:e-p270:32:32-p271:32:32-p272:64:64-i64:64-i128:128-f80:128-n8:16:32:64-S128"
target triple = "x86_64-pc-linux-gnu"

%struct.Mv = type { i32, i32 }
%struct.VVCLocalContext = type { i8, i8, i8, i8, i32, i32, [4 x i8], [3276800 x i8], [16384 x i16], [16384 x i16], [16384 x i16], [32768 x i8], [332800 x i8], [368640 x i8], [368640 x i8], [17424 x i32], %struct.anon, %struct.anon.0, ptr, [2 x [1024 x %struct.ReconstructedArea]], [2 x i32], %struct.NeighbourAvailable, i32, ptr, ptr, ptr, ptr }
%struct.anon = type { i32, i8, i32, i32, i32, [3 x i32], i32, i32, i32, i32, i32, i32 }
%struct.anon.0 = type { i32, i32, i32 }
%struct.ReconstructedArea = type { i32, i32, i32, i32 }
%struct.NeighbourAvailable = type { i32, i32, i32, i32, i32 }
%struct.MvField = type { [2 x %struct.Mv], [2 x i8], i8, i8, i8, i8 }
%struct.CodingUnit = type { i32, i32, i32, i32, i32, i32, i32, i8, i8, i8, i8, i32, i32, i8, i8, i8, i8, i8, i32, i32, i32, i32, i32, i32, [3 x i32], [3 x i32], %struct.anon.3, [4 x i8], [3 x %struct.Palette], [4 x i8], %struct.PredictionUnit, ptr }
%struct.anon.3 = type { ptr, ptr }
%struct.Palette = type { i8, [63 x i16] }
%struct.PredictionUnit = type { i8, i8, i8, i8, i8, i8, [2 x %struct.MvField], i32, %struct.MotionInfo, i8, i8, [2 x [16 x i16]], [2 x [16 x i16]], [2 x i32], [4 x i8] }
%struct.MotionInfo = type { i32, [2 x i8], i8, i8, i32, [2 x [3 x %struct.Mv]], i32, i32 }

; Function Attrs: nounwind uwtable
define void @ff_vvc_luma_mv_merge_mode(ptr noundef %0, i32 noundef %1, i32 noundef %2, ptr noundef %3) #0 {
  %5 = alloca ptr, align 8
  %6 = alloca i32, align 4
  %7 = alloca i32, align 4
  %8 = alloca ptr, align 8
  %9 = alloca ptr, align 8
  %10 = alloca [6 x %struct.MvField], align 16
  store ptr %0, ptr %5, align 8, !tbaa !14
  store i32 %1, ptr %6, align 4, !tbaa !9
  store i32 %2, ptr %7, align 4, !tbaa !9
  store ptr %3, ptr %8, align 8, !tbaa !77
  call void @llvm.lifetime.start.p0(i64 8, ptr %9) #9
  %11 = load ptr, ptr %5, align 8, !tbaa !14
  %12 = getelementptr inbounds nuw %struct.VVCLocalContext, ptr %11, i32 0, i32 18
  %13 = load ptr, ptr %12, align 8, !tbaa !90
  store ptr %13, ptr %9, align 8, !tbaa !91
  call void @llvm.lifetime.start.p0(i64 144, ptr %10) #9
  %14 = load ptr, ptr %5, align 8, !tbaa !14
  %15 = load ptr, ptr %9, align 8, !tbaa !91
  %16 = getelementptr inbounds nuw %struct.CodingUnit, ptr %15, i32 0, i32 1
  %17 = load i32, ptr %16, align 4, !tbaa !108
  %18 = load ptr, ptr %9, align 8, !tbaa !91
  %19 = getelementptr inbounds nuw %struct.CodingUnit, ptr %18, i32 0, i32 2
  %20 = load i32, ptr %19, align 8, !tbaa !109
  %21 = load ptr, ptr %9, align 8, !tbaa !91
  %22 = getelementptr inbounds nuw %struct.CodingUnit, ptr %21, i32 0, i32 3
  %23 = load i32, ptr %22, align 4, !tbaa !107
  %24 = load ptr, ptr %9, align 8, !tbaa !91
  %25 = getelementptr inbounds nuw %struct.CodingUnit, ptr %24, i32 0, i32 4
  %26 = load i32, ptr %25, align 8, !tbaa !101
  call void @ff_vvc_set_neighbour_available(ptr noundef %14, i32 noundef %17, i32 noundef %20, i32 noundef %23, i32 noundef %26)
  %27 = load ptr, ptr %5, align 8, !tbaa !14
  %28 = load i32, ptr %6, align 4, !tbaa !9
  %29 = getelementptr inbounds [6 x %struct.MvField], ptr %10, i64 0, i64 0
  call void @mv_merge_mode(ptr noundef %27, i32 noundef %28, ptr noundef %29)
  %30 = load ptr, ptr %8, align 8, !tbaa !77
  %31 = load i32, ptr %6, align 4, !tbaa !9
  %32 = sext i32 %31 to i64
  %33 = getelementptr inbounds [6 x %struct.MvField], ptr %10, i64 0, i64 %32
  call void @llvm.memcpy.p0.p0.i64(ptr align 8 %30, ptr align 8 %33, i64 24, i1 false), !tbaa.struct !85
  %34 = load i32, ptr %7, align 4, !tbaa !9
  %35 = trunc i32 %34 to i8
  %36 = load ptr, ptr %8, align 8, !tbaa !77
  %37 = getelementptr inbounds nuw %struct.MvField, ptr %36, i32 0, i32 5
  store i8 %35, ptr %37, align 1, !tbaa !112
  call void @llvm.lifetime.end.p0(i64 144, ptr %10) #9
  call void @llvm.lifetime.end.p0(i64 8, ptr %9) #9
  ret void
}