; Function Attrs: nounwind uwtable
define void @ff_vvc_luma_mv_merge_mode(ptr noundef %0, i32 noundef %1, i32 noundef %2, ptr noundef writeonly captures(none) initializes((0, 24)) %3) local_unnamed_addr #7 {
  %5 = alloca [6 x %struct.MvField], align 16
  %6 = getelementptr inbounds nuw i8, ptr %0, i64 4547736
  %7 = load ptr, ptr %6, align 8, !tbaa !80
  call void @llvm.lifetime.start.p0(i64 144, ptr nonnull %5) #14
  %8 = getelementptr inbounds nuw i8, ptr %7, i64 4
  %9 = load i32, ptr %8, align 4, !tbaa !90
  %10 = getelementptr inbounds nuw i8, ptr %7, i64 8
  %11 = load i32, ptr %10, align 8, !tbaa !91
  %12 = getelementptr inbounds nuw i8, ptr %7, i64 12
  %13 = load i32, ptr %12, align 4, !tbaa !89
  %14 = getelementptr inbounds nuw i8, ptr %7, i64 16
  %15 = load i32, ptr %14, align 8, !tbaa !83
  tail call void @ff_vvc_set_neighbour_available(ptr noundef %0, i32 noundef %9, i32 noundef %11, i32 noundef %13, i32 noundef %15) #14
  call fastcc void @mv_merge_mode(ptr noundef %0, i32 noundef %1, ptr noundef %5)
  %16 = sext i32 %1 to i64
  %17 = getelementptr inbounds [6 x %struct.MvField], ptr %5, i64 0, i64 %16
  call void @llvm.memcpy.p0.p0.i64(ptr noundef nonnull align 8 dereferenceable(24) %3, ptr noundef nonnull align 8 dereferenceable(24) %17, i64 24, i1 false), !tbaa.struct !77
  %18 = trunc i32 %2 to i8
  %19 = getelementptr inbounds nuw i8, ptr %3, i64 21
  store i8 %18, ptr %19, align 1, !tbaa !94
  call void @llvm.lifetime.end.p0(i64 144, ptr nonnull %5) #14
  ret void
}